; Function Attrs: mustprogress uwtable
define void @_ZNK6google8protobuf8compiler6python12PyiGenerator13PrintMessagesEv(ptr noundef nonnull align 8 dereferenceable(80) %this) local_unnamed_addr #6 align 2 {
entry:
  %file_ = getelementptr inbounds i8, ptr %this, i64 24
  %0 = load ptr, ptr %file_, align 8
  %message_type_count_.i3 = getelementptr inbounds i8, ptr %0, i64 60
  %1 = load i32, ptr %message_type_count_.i3, align 4
  %cmp4 = icmp sgt i32 %1, 0
  br i1 %cmp4, label %for.body, label %for.end

for.body:                                         ; preds = %entry, %for.body
  %indvars.iv = phi i64 [ %indvars.iv.next, %for.body ], [ 0, %entry ]
  %2 = phi ptr [ %4, %for.body ], [ %0, %entry ]
  %message_types_.i = getelementptr inbounds i8, ptr %2, i64 96
  %3 = load ptr, ptr %message_types_.i, align 8
  %add.ptr.i = getelementptr inbounds %"class.google::protobuf::Descriptor", ptr %3, i64 %indvars.iv
  tail call void @_ZNK6google8protobuf8compiler6python12PyiGenerator12PrintMessageERKNS0_10DescriptorEb(ptr noundef nonnull align 8 dereferenceable(80) %this, ptr noundef nonnull align 8 dereferenceable(152) %add.ptr.i, i1 noundef zeroext false)
  %indvars.iv.next = add nuw nsw i64 %indvars.iv, 1
  %4 = load ptr, ptr %file_, align 8
  %message_type_count_.i = getelementptr inbounds i8, ptr %4, i64 60
  %5 = load i32, ptr %message_type_count_.i, align 4
  %6 = sext i32 %5 to i64
  %cmp = icmp slt i64 %indvars.iv.next, %6
  br i1 %cmp, label %for.body, label %for.end, !llvm.loop !282

for.end:                                          ; preds = %for.body, %entry
  ret void
}